; Function Attrs: mustprogress nofree norecurse nosync nounwind sspstrong willreturn memory(argmem: read) uwtable
define internal range(i32 384, 0) i32 @get_eecd(ptr noundef readonly captures(none) %s, i32 %index) #4 {
entry:
  %old_eecd = getelementptr inbounds nuw i8, ptr %s, i64 208512
  %0 = load i32, ptr %old_eecd, align 4
  %reading = getelementptr inbounds nuw i8, ptr %s, i64 208508
  %1 = load i16, ptr %reading, align 4
  %tobool.not = icmp eq i16 %1, 0
  br i1 %tobool.not, label %if.then, label %lor.lhs.false

lor.lhs.false:                                    ; preds = %entry
  %or = or i32 %0, 384
  %eeprom_data = getelementptr inbounds nuw i8, ptr %s, i64 142512
  %bitnum_out = getelementptr inbounds nuw i8, ptr %s, i64 208506
  %2 = load i16, ptr %bitnum_out, align 2
  %conv = zext i16 %2 to i32
  %shr = lshr i32 %conv, 4
  %and = and i32 %shr, 63
  %idxprom = zext nneg i32 %and to i64
  %arrayidx = getelementptr [64 x i16], ptr %eeprom_data, i64 0, i64 %idxprom
  %3 = load i16, ptr %arrayidx, align 2
  %conv3 = zext i16 %3 to i32
  %and7 = and i32 %conv, 15
  %xor = xor i32 %and7, 15
  %4 = shl nuw nsw i32 1, %xor
  %5 = and i32 %4, %conv3
  %tobool10.not = icmp eq i32 %5, 0
  br i1 %tobool10.not, label %if.end, label %if.then

if.then:                                          ; preds = %lor.lhs.false, %entry
  %or11 = or i32 %0, 392
  br label %if.end

if.end:                                           ; preds = %if.then, %lor.lhs.false
  %ret.0 = phi i32 [ %or11, %if.then ], [ %or, %lor.lhs.false ]
  ret i32 %ret.0
}